target datalayout = "e-m:e-p270:32:32-p271:32:32-p272:64:64-i64:64-i128:128-f80:128-n8:16:32:64-S128"
target triple = "x86_64-pc-linux-gnu"

; Function Attrs: nounwind uwtable
define i32 @bwlzh_get_buflen(i32 noundef %0) #0 {
  %2 = alloca i32, align 4
  store i32 %0, ptr %2, align 4, !tbaa !3
  %3 = load i32, ptr %2, align 4, !tbaa !3
  %4 = mul nsw i32 %3, 8
  %5 = add nsw i32 132000, %4
  %6 = load i32, ptr %2, align 4, !tbaa !3
  %7 = add nsw i32 %6, 200000
  %8 = sdiv i32 %7, 200000
  %9 = mul nsw i32 12, %8
  %10 = add nsw i32 %5, %9
  ret i32 %10
}