; Function Attrs: mustprogress nofree norecurse nosync nounwind willreturn memory(none) uwtable
define range(i32 -2147480480, -2147483648) i32 @bwlzh_get_buflen(i32 noundef %0) local_unnamed_addr #0 {
  %2 = shl nsw i32 %0, 3
  %3 = add nsw i32 %2, 132000
  %4 = add nsw i32 %0, 200000
  %5 = sdiv i32 %4, 200000
  %6 = mul nsw i32 %5, 12
  %7 = add nsw i32 %3, %6
  ret i32 %7
}